; Function Attrs: nounwind uwtable
define internal i32 @test_CTX_set1_get0_recipNonce() #1 {
  %1 = tail call fastcc ptr @set_up(ptr noundef nonnull @.str.49)
  %2 = icmp eq ptr %1, null
  br i1 %2, label %58, label %3

3:                                                ; preds = %0
  %4 = getelementptr i8, ptr %1, i64 8
  %.val = load ptr, ptr %4, align 8, !tbaa !4
  %5 = tail call ptr @ASN1_OCTET_STRING_new() #6
  %6 = tail call ptr @ASN1_OCTET_STRING_new() #6
  %7 = tail call i64 @ERR_peek_error() #6
  %8 = trunc i64 %7 to i32
  %9 = tail call i32 @test_int_eq(ptr noundef nonnull @.str, i32 noundef 812, ptr noundef nonnull @.str.62, ptr noundef nonnull @.str.63, i32 noundef %8, i32 noundef 0) #6
  %.not.i = icmp ne i32 %9, 0
  %spec.select.i = zext i1 %.not.i to i32
  tail call void @ERR_clear_error() #6
  tail call void @ERR_new() #6
  tail call void @ERR_set_debug(ptr noundef nonnull @.str, i32 noundef 812, ptr noundef nonnull @__func__.OSSL_CMP_CTX_get0_recipNonce) #6
  tail call void (i32, i32, ptr, ...) @ERR_set_error(i32 noundef 58, i32 noundef 103, ptr noundef null) #6
  %10 = tail call i64 @ERR_peek_error() #6
  %11 = icmp eq i64 %10, 0
  br i1 %11, label %12, label %13

12:                                               ; preds = %3
  tail call void (ptr, i32, ptr, ...) @test_error(ptr noundef nonnull @.str, i32 noundef 812, ptr noundef nonnull @.str.65) #6
  br label %13

13:                                               ; preds = %12, %3
  %.1.i = phi i32 [ 0, %12 ], [ %spec.select.i, %3 ]
  tail call void @ERR_clear_error() #6
  %14 = icmp eq ptr %.val, null
  br i1 %14, label %OSSL_CMP_CTX_get0_recipNonce.exit.thread.i, label %OSSL_CMP_CTX_get0_recipNonce.exit.i

OSSL_CMP_CTX_get0_recipNonce.exit.thread.i:       ; preds = %13
  tail call void @ERR_new() #6
  tail call void @ERR_set_debug(ptr noundef nonnull @.str, i32 noundef 812, ptr noundef nonnull @__func__.OSSL_CMP_CTX_get0_recipNonce) #6
  tail call void (i32, i32, ptr, ...) @ERR_set_error(i32 noundef 58, i32 noundef 103, ptr noundef null) #6
  br label %19

OSSL_CMP_CTX_get0_recipNonce.exit.i:              ; preds = %13
  %15 = getelementptr inbounds nuw i8, ptr %.val, i64 296
  %16 = load ptr, ptr %15, align 8, !tbaa !39
  %17 = icmp eq ptr %16, null
  br i1 %17, label %19, label %18

18:                                               ; preds = %OSSL_CMP_CTX_get0_recipNonce.exit.i
  tail call void (ptr, i32, ptr, ...) @test_error(ptr noundef nonnull @.str, i32 noundef 812, ptr noundef nonnull @.str.66) #6
  br label %19

19:                                               ; preds = %18, %OSSL_CMP_CTX_get0_recipNonce.exit.i, %OSSL_CMP_CTX_get0_recipNonce.exit.thread.i
  %.2.i = phi i32 [ %.1.i, %OSSL_CMP_CTX_get0_recipNonce.exit.i ], [ 0, %18 ], [ %.1.i, %OSSL_CMP_CTX_get0_recipNonce.exit.thread.i ]
  %20 = tail call i32 @ossl_cmp_ctx_set1_recipNonce(ptr noundef %.val, ptr noundef %5) #6
  %.not37.i = icmp eq i32 %20, 0
  br i1 %.not37.i, label %21, label %22

21:                                               ; preds = %19
  tail call void (ptr, i32, ptr, ...) @test_error(ptr noundef nonnull @.str, i32 noundef 812, ptr noundef nonnull @.str.67) #6
  br label %22

22:                                               ; preds = %21, %19
  %.3.i = phi i32 [ %.2.i, %19 ], [ 0, %21 ]
  br i1 %14, label %OSSL_CMP_CTX_get0_recipNonce.exit43.thread.i, label %OSSL_CMP_CTX_get0_recipNonce.exit43.i

OSSL_CMP_CTX_get0_recipNonce.exit43.i:            ; preds = %22
  %23 = getelementptr inbounds nuw i8, ptr %.val, i64 296
  %24 = load ptr, ptr %23, align 8, !tbaa !39
  %25 = icmp eq ptr %24, %5
  br i1 %25, label %.thread.i, label %27

OSSL_CMP_CTX_get0_recipNonce.exit43.thread.i:     ; preds = %22
  tail call void @ERR_new() #6
  tail call void @ERR_set_debug(ptr noundef nonnull @.str, i32 noundef 812, ptr noundef nonnull @__func__.OSSL_CMP_CTX_get0_recipNonce) #6
  tail call void (i32, i32, ptr, ...) @ERR_set_error(i32 noundef 58, i32 noundef 103, ptr noundef null) #6
  %26 = icmp eq ptr %5, null
  br i1 %26, label %.thread.i, label %.thread12.i

.thread.i:                                        ; preds = %OSSL_CMP_CTX_get0_recipNonce.exit43.thread.i, %OSSL_CMP_CTX_get0_recipNonce.exit43.i
  tail call void (ptr, i32, ptr, ...) @test_error(ptr noundef nonnull @.str, i32 noundef 812, ptr noundef nonnull @.str.122) #6
  br label %.thread12.i

27:                                               ; preds = %OSSL_CMP_CTX_get0_recipNonce.exit43.i
  %28 = icmp eq ptr %24, null
  br i1 %28, label %.thread12.i, label %29

.thread12.i:                                      ; preds = %27, %.thread.i, %OSSL_CMP_CTX_get0_recipNonce.exit43.thread.i
  tail call void (ptr, i32, ptr, ...) @test_error(ptr noundef nonnull @.str, i32 noundef 812, ptr noundef nonnull @.str.123) #6
  br label %29

29:                                               ; preds = %.thread12.i, %27
  %.5.i = phi i32 [ 0, %.thread12.i ], [ %.3.i, %27 ]
  %30 = tail call i32 @ossl_cmp_ctx_set1_recipNonce(ptr noundef %.val, ptr noundef %6) #6
  %.not38.i = icmp eq i32 %30, 0
  br i1 %.not38.i, label %31, label %32

31:                                               ; preds = %29
  tail call void (ptr, i32, ptr, ...) @test_error(ptr noundef nonnull @.str, i32 noundef 812, ptr noundef nonnull @.str.69) #6
  br label %32

32:                                               ; preds = %31, %29
  %.6.i = phi i32 [ %.5.i, %29 ], [ 0, %31 ]
  br i1 %14, label %OSSL_CMP_CTX_get0_recipNonce.exit45.thread.i, label %OSSL_CMP_CTX_get0_recipNonce.exit45.i

OSSL_CMP_CTX_get0_recipNonce.exit45.thread.i:     ; preds = %32
  tail call void @ERR_new() #6
  tail call void @ERR_set_debug(ptr noundef nonnull @.str, i32 noundef 812, ptr noundef nonnull @__func__.OSSL_CMP_CTX_get0_recipNonce) #6
  tail call void (i32, i32, ptr, ...) @ERR_set_error(i32 noundef 58, i32 noundef 103, ptr noundef null) #6
  br label %36

OSSL_CMP_CTX_get0_recipNonce.exit45.i:            ; preds = %32
  %33 = getelementptr inbounds nuw i8, ptr %.val, i64 296
  %34 = load ptr, ptr %33, align 8, !tbaa !39
  %35 = icmp eq ptr %34, null
  br i1 %35, label %36, label %37

36:                                               ; preds = %OSSL_CMP_CTX_get0_recipNonce.exit45.i, %OSSL_CMP_CTX_get0_recipNonce.exit45.thread.i
  tail call void (ptr, i32, ptr, ...) @test_error(ptr noundef nonnull @.str, i32 noundef 812, ptr noundef nonnull @.str.70) #6
  br label %37

37:                                               ; preds = %36, %OSSL_CMP_CTX_get0_recipNonce.exit45.i
  %.0.i445.i = phi ptr [ null, %36 ], [ %34, %OSSL_CMP_CTX_get0_recipNonce.exit45.i ]
  %.7.i = phi i32 [ 0, %36 ], [ %.6.i, %OSSL_CMP_CTX_get0_recipNonce.exit45.i ]
  %38 = icmp eq ptr %.0.i445.i, %6
  br i1 %38, label %39, label %40

39:                                               ; preds = %37
  tail call void (ptr, i32, ptr, ...) @test_error(ptr noundef nonnull @.str, i32 noundef 812, ptr noundef nonnull @.str.124) #6
  br label %40

40:                                               ; preds = %39, %37
  %.032.i = phi ptr [ null, %39 ], [ %.0.i445.i, %37 ]
  %.8.i = phi i32 [ 0, %39 ], [ %.7.i, %37 ]
  %41 = icmp eq ptr %6, %5
  br i1 %41, label %42, label %43

42:                                               ; preds = %40
  tail call void (ptr, i32, ptr, ...) @test_error(ptr noundef nonnull @.str, i32 noundef 812, ptr noundef nonnull @.str.125) #6
  br label %43

43:                                               ; preds = %42, %40
  %.9.i = phi i32 [ 0, %42 ], [ %.8.i, %40 ]
  br i1 %14, label %OSSL_CMP_CTX_get0_recipNonce.exit47.thread.i, label %OSSL_CMP_CTX_get0_recipNonce.exit47.i

OSSL_CMP_CTX_get0_recipNonce.exit47.thread.i:     ; preds = %43
  tail call void @ERR_new() #6
  tail call void @ERR_set_debug(ptr noundef nonnull @.str, i32 noundef 812, ptr noundef nonnull @__func__.OSSL_CMP_CTX_get0_recipNonce) #6
  tail call void (i32, i32, ptr, ...) @ERR_set_error(i32 noundef 58, i32 noundef 103, ptr noundef null) #6
  br label %47

OSSL_CMP_CTX_get0_recipNonce.exit47.i:            ; preds = %43
  %44 = getelementptr inbounds nuw i8, ptr %.val, i64 296
  %45 = load ptr, ptr %44, align 8, !tbaa !39
  %46 = icmp eq ptr %45, null
  br i1 %46, label %47, label %48

47:                                               ; preds = %OSSL_CMP_CTX_get0_recipNonce.exit47.i, %OSSL_CMP_CTX_get0_recipNonce.exit47.thread.i
  tail call void (ptr, i32, ptr, ...) @test_error(ptr noundef nonnull @.str, i32 noundef 812, ptr noundef nonnull @.str.72) #6
  br label %48

48:                                               ; preds = %47, %OSSL_CMP_CTX_get0_recipNonce.exit47.i
  %.0.i468.i = phi ptr [ null, %47 ], [ %45, %OSSL_CMP_CTX_get0_recipNonce.exit47.i ]
  %.10.i = phi i32 [ 0, %47 ], [ %.9.i, %OSSL_CMP_CTX_get0_recipNonce.exit47.i ]
  %.not39.i = icmp eq ptr %.0.i468.i, %.032.i
  br i1 %.not39.i, label %tear_down.exit, label %49

49:                                               ; preds = %48
  tail call void (ptr, i32, ptr, ...) @test_error(ptr noundef nonnull @.str, i32 noundef 812, ptr noundef nonnull @.str.73) #6
  br label %tear_down.exit

tear_down.exit:                                   ; preds = %48, %49
  %.11.i = phi i32 [ 0, %49 ], [ %.10.i, %48 ]
  %50 = tail call i64 @ERR_peek_error() #6
  %51 = trunc i64 %50 to i32
  %52 = tail call i32 @test_int_eq(ptr noundef nonnull @.str, i32 noundef 812, ptr noundef nonnull @.str.62, ptr noundef nonnull @.str.63, i32 noundef %51, i32 noundef 0) #6
  %.not40.i = icmp ne i32 %52, 0
  tail call void @ASN1_OCTET_STRING_free(ptr noundef %5) #6
  tail call void @ASN1_OCTET_STRING_free(ptr noundef %6) #6
  %53 = icmp ne i32 %.11.i, 0
  %54 = select i1 %.not40.i, i1 %53, i1 false
  %55 = zext i1 %54 to i32
  %56 = tail call i32 @test_true(ptr noundef nonnull @.str, i32 noundef 812, ptr noundef nonnull @.str.74, i32 noundef %55) #6
  %57 = load ptr, ptr %4, align 8, !tbaa !4
  tail call void @OSSL_CMP_CTX_free(ptr noundef %57) #6
  tail call void @CRYPTO_free(ptr noundef nonnull %1, ptr noundef nonnull @.str, i32 noundef 25) #6
  br label %58

58:                                               ; preds = %0, %tear_down.exit
  %.05 = phi i32 [ %56, %tear_down.exit ], [ 0, %0 ]
  ret i32 %.05
}